; Function Attrs: mustprogress uwtable
define hidden void @_ZN10duckdb_re211FilteredRE2C2Ei(ptr noundef nonnull align 8 captures(none) dereferenceable(40) initializes((0, 25)) %0, i32 noundef %1) unnamed_addr #0 align 2 personality ptr @__gxx_personality_v0 {
  tail call void @llvm.memset.p0.i64(ptr noundef nonnull align 8 dereferenceable(25) %0, i8 0, i64 25, i1 false)
  %3 = tail call noalias noundef nonnull dereferenceable(104) ptr @_Znwm(i64 noundef 104) #14
  invoke void @_ZN10duckdb_re213PrefilterTreeC1Ei(ptr noundef nonnull align 8 dereferenceable(104) %3, i32 noundef %1)
          to label %4 unwind label %6

4:                                                ; preds = %2
  %5 = getelementptr inbounds nuw i8, ptr %0, i64 32
  store ptr %3, ptr %5, align 8, !tbaa !3
  ret void

6:                                                ; preds = %2
  %7 = landingpad { ptr, i32 }
          cleanup
  tail call void @_ZdlPv(ptr noundef nonnull %3) #15
  %.pr = load ptr, ptr %0, align 8, !tbaa !8
  %.not.i.i.i = icmp eq ptr %.pr, null
  br i1 %.not.i.i.i, label %_ZNSt6vectorIPN10duckdb_re23RE2ESaIS2_EED2Ev.exit, label %8

8:                                                ; preds = %6
  tail call void @_ZdlPv(ptr noundef nonnull %.pr) #15
  br label %_ZNSt6vectorIPN10duckdb_re23RE2ESaIS2_EED2Ev.exit

_ZNSt6vectorIPN10duckdb_re23RE2ESaIS2_EED2Ev.exit: ; preds = %6, %8
  resume { ptr, i32 } %7
}